target datalayout = "e-m:e-p270:32:32-p271:32:32-p272:64:64-i64:64-i128:128-f80:128-n8:16:32:64-S128"
target triple = "x86_64-pc-linux-gnu"

%"class.cv::Matx.0" = type { [16 x float] }
%"class.cv::Point3_" = type { i32, i32, i32 }
%"class.cv::Point3_.1" = type { float, float, float }
%"class.cv::Vec.2" = type { %"class.cv::Matx.3" }
%"class.cv::Matx.3" = type { [4 x i32] }
%"class.cv::Vec.4" = type { %"class.cv::Matx.5" }
%"class.cv::Matx.5" = type { [8 x i32] }
%"class.cv::kinfu::TSDFVolume" = type { %"class.cv::kinfu::Volume.base", %"class.cv::Point3_", i8, %"class.cv::Point3_.1", float, %"class.cv::Vec.2", %"class.cv::Vec.4", [4 x i8] }
%"class.cv::kinfu::Volume.base" = type <{ ptr, float, float, %"class.cv::Affine3", float }>
%"class.cv::Affine3" = type { %"class.cv::Matx.0" }
%"class.cv::Mat" = type { i32, i32, i32, i32, ptr, ptr, ptr, ptr, ptr, ptr, %"struct.cv::MatSize", %"struct.cv::MatStep" }
%"struct.cv::MatSize" = type { ptr }
%"struct.cv::MatStep" = type { ptr, [2 x i64] }
%"class.cv::kinfu::TSDFVolumeCPU" = type { %"class.cv::kinfu::TSDFVolume.base", %"class.cv::Vec.2", %"class.cv::Vec.8", %"class.cv::Mat", %"class.cv::Mat" }
%"class.cv::kinfu::TSDFVolume.base" = type { %"class.cv::kinfu::Volume.base", %"class.cv::Point3_", i8, %"class.cv::Point3_.1", float, %"class.cv::Vec.2", %"class.cv::Vec.4" }
%"class.cv::Vec.8" = type { %"class.cv::Matx.9" }
%"class.cv::Matx.9" = type { [6 x float] }
%"struct.cv::kinfu::TsdfVoxel" = type { i8, i8 }
%"class.cv::Matx.7" = type { [3 x i32] }

; Function Attrs: mustprogress nounwind uwtable
define linkonce_odr hidden noundef nonnull align 4 dereferenceable(4) ptr @_ZNK2cv3VecIiLi4EEixEi(ptr noundef nonnull align 4 dereferenceable(16) %0, i32 noundef %1) #7 comdat align 2 {
  %3 = alloca ptr, align 8
  %4 = alloca i32, align 4
  store ptr %0, ptr %3, align 8
  store i32 %1, ptr %4, align 4
  %5 = load ptr, ptr %3, align 8
  %6 = getelementptr inbounds %"class.cv::Matx.3", ptr %5, i32 0, i32 0
  %7 = load i32, ptr %4, align 4
  %8 = sext i32 %7 to i64
  %9 = getelementptr inbounds [4 x i32], ptr %6, i64 0, i64 %8
  ret ptr %9
}

; Function Attrs: mustprogress nounwind uwtable
define linkonce_odr hidden noundef ptr @_ZNK2cv3Mat3ptrINS_5kinfu9TsdfVoxelEEEPKT_i(ptr noundef nonnull align 8 dereferenceable(96) %0, i32 noundef %1) #7 comdat align 2 {
  %3 = alloca ptr, align 8
  %4 = alloca i32, align 4
  store ptr %0, ptr %3, align 8
  store i32 %1, ptr %4, align 4
  %5 = load ptr, ptr %3, align 8
  %6 = getelementptr inbounds %"class.cv::Mat", ptr %5, i32 0, i32 4
  %7 = load ptr, ptr %6, align 8
  %8 = getelementptr inbounds %"class.cv::Mat", ptr %5, i32 0, i32 11
  %9 = getelementptr inbounds %"struct.cv::MatStep", ptr %8, i32 0, i32 0
  %10 = load ptr, ptr %9, align 8
  %11 = getelementptr inbounds i64, ptr %10, i64 0
  %12 = load i64, ptr %11, align 8
  %13 = load i32, ptr %4, align 4
  %14 = sext i32 %13 to i64
  %15 = mul i64 %12, %14
  %16 = getelementptr inbounds i8, ptr %7, i64 %15
  ret ptr %16
}

; Function Attrs: mustprogress nounwind uwtable
define linkonce_odr hidden void @_ZN2cv5kinfu9TsdfVoxelC2Eah(ptr noundef nonnull align 1 dereferenceable(2) %0, i8 noundef signext %1, i8 noundef zeroext %2) unnamed_addr #7 comdat align 2 {
  %4 = alloca ptr, align 8
  %5 = alloca i8, align 1
  %6 = alloca i8, align 1
  store ptr %0, ptr %4, align 8
  store i8 %1, ptr %5, align 1
  store i8 %2, ptr %6, align 1
  %7 = load ptr, ptr %4, align 8
  %8 = getelementptr inbounds %"struct.cv::kinfu::TsdfVoxel", ptr %7, i32 0, i32 0
  %9 = load i8, ptr %5, align 1
  store i8 %9, ptr %8, align 1
  %10 = getelementptr inbounds %"struct.cv::kinfu::TsdfVoxel", ptr %7, i32 0, i32 1
  %11 = load i8, ptr %6, align 1
  store i8 %11, ptr %10, align 1
  ret void
}

; Function Attrs: mustprogress nounwind uwtable
define linkonce_odr hidden noundef signext i8 @_ZN2cv5kinfu11floatToTsdfEf(float noundef %0) #7 comdat {
  %2 = alloca float, align 4
  %3 = alloca i8, align 1
  store float %0, ptr %2, align 4
  %4 = load float, ptr %2, align 4
  %5 = fmul float %4, -1.280000e+02
  %6 = fptosi float %5 to i8
  store i8 %6, ptr %3, align 1
  %7 = load i8, ptr %3, align 1
  %8 = icmp ne i8 %7, 0
  br i1 %8, label %9, label %12

9:                                                ; preds = %1
  %10 = load i8, ptr %3, align 1
  %11 = sext i8 %10 to i32
  br label %16

12:                                               ; preds = %1
  %13 = load float, ptr %2, align 4
  %14 = fcmp olt float %13, 0.000000e+00
  %15 = select i1 %14, i32 1, i32 -1
  br label %16

16:                                               ; preds = %12, %9
  %17 = phi i32 [ %11, %9 ], [ %15, %12 ]
  %18 = trunc i32 %17 to i8
  store i8 %18, ptr %3, align 1
  %19 = load i8, ptr %3, align 1
  ret i8 %19
}

; Function Attrs: mustprogress nounwind uwtable
define linkonce_odr hidden noundef nonnull align 4 dereferenceable(4) ptr @_ZNK2cv3VecIiLi3EEixEi(ptr noundef nonnull align 4 dereferenceable(12) %0, i32 noundef %1) #7 comdat align 2 {
  %3 = alloca ptr, align 8
  %4 = alloca i32, align 4
  store ptr %0, ptr %3, align 8
  store i32 %1, ptr %4, align 4
  %5 = load ptr, ptr %3, align 8
  %6 = getelementptr inbounds %"class.cv::Matx.7", ptr %5, i32 0, i32 0
  %7 = load i32, ptr %4, align 4
  %8 = sext i32 %7 to i64
  %9 = getelementptr inbounds [3 x i32], ptr %6, i64 0, i64 %8
  ret ptr %9
}

; Function Attrs: mustprogress uwtable
define hidden i16 @_ZNK2cv5kinfu13TSDFVolumeCPU2atERKNS_3VecIiLi3EEE(ptr noundef nonnull align 8 dereferenceable(400) %0, ptr noundef nonnull align 4 dereferenceable(12) %1) unnamed_addr #4 align 2 {
  %3 = alloca %"struct.cv::kinfu::TsdfVoxel", align 1
  %4 = alloca ptr, align 8
  %5 = alloca ptr, align 8
  %6 = alloca ptr, align 8
  %7 = alloca i32, align 4
  store ptr %0, ptr %4, align 8
  store ptr %1, ptr %5, align 8
  %8 = load ptr, ptr %4, align 8
  %9 = load ptr, ptr %5, align 8
  %10 = call noundef nonnull align 4 dereferenceable(4) ptr @_ZNK2cv3VecIiLi3EEixEi(ptr noundef nonnull align 4 dereferenceable(12) %9, i32 noundef 0)
  %11 = load i32, ptr %10, align 4
  %12 = getelementptr inbounds %"class.cv::kinfu::TSDFVolume", ptr %8, i32 0, i32 1
  %13 = getelementptr inbounds %"class.cv::Point3_", ptr %12, i32 0, i32 0
  %14 = load i32, ptr %13, align 4
  %15 = icmp sge i32 %11, %14
  br i1 %15, label %47, label %16

16:                                               ; preds = %2
  %17 = load ptr, ptr %5, align 8
  %18 = call noundef nonnull align 4 dereferenceable(4) ptr @_ZNK2cv3VecIiLi3EEixEi(ptr noundef nonnull align 4 dereferenceable(12) %17, i32 noundef 0)
  %19 = load i32, ptr %18, align 4
  %20 = icmp slt i32 %19, 0
  br i1 %20, label %47, label %21

21:                                               ; preds = %16
  %22 = load ptr, ptr %5, align 8
  %23 = call noundef nonnull align 4 dereferenceable(4) ptr @_ZNK2cv3VecIiLi3EEixEi(ptr noundef nonnull align 4 dereferenceable(12) %22, i32 noundef 1)
  %24 = load i32, ptr %23, align 4
  %25 = getelementptr inbounds %"class.cv::kinfu::TSDFVolume", ptr %8, i32 0, i32 1
  %26 = getelementptr inbounds %"class.cv::Point3_", ptr %25, i32 0, i32 1
  %27 = load i32, ptr %26, align 4
  %28 = icmp sge i32 %24, %27
  br i1 %28, label %47, label %29

29:                                               ; preds = %21
  %30 = load ptr, ptr %5, align 8
  %31 = call noundef nonnull align 4 dereferenceable(4) ptr @_ZNK2cv3VecIiLi3EEixEi(ptr noundef nonnull align 4 dereferenceable(12) %30, i32 noundef 1)
  %32 = load i32, ptr %31, align 4
  %33 = icmp slt i32 %32, 0
  br i1 %33, label %47, label %34

34:                                               ; preds = %29
  %35 = load ptr, ptr %5, align 8
  %36 = call noundef nonnull align 4 dereferenceable(4) ptr @_ZNK2cv3VecIiLi3EEixEi(ptr noundef nonnull align 4 dereferenceable(12) %35, i32 noundef 2)
  %37 = load i32, ptr %36, align 4
  %38 = getelementptr inbounds %"class.cv::kinfu::TSDFVolume", ptr %8, i32 0, i32 1
  %39 = getelementptr inbounds %"class.cv::Point3_", ptr %38, i32 0, i32 2
  %40 = load i32, ptr %39, align 4
  %41 = icmp sge i32 %37, %40
  br i1 %41, label %47, label %42

42:                                               ; preds = %34
  %43 = load ptr, ptr %5, align 8
  %44 = call noundef nonnull align 4 dereferenceable(4) ptr @_ZNK2cv3VecIiLi3EEixEi(ptr noundef nonnull align 4 dereferenceable(12) %43, i32 noundef 2)
  %45 = load i32, ptr %44, align 4
  %46 = icmp slt i32 %45, 0
  br i1 %46, label %47, label %49

47:                                               ; preds = %42, %34, %29, %21, %16, %2
  %48 = call noundef signext i8 @_ZN2cv5kinfu11floatToTsdfEf(float noundef 1.000000e+00)
  call void @_ZN2cv5kinfu9TsdfVoxelC2Eah(ptr noundef nonnull align 1 dereferenceable(2) %3, i8 noundef signext %48, i8 noundef zeroext 0)
  br label %79

49:                                               ; preds = %42
  %50 = getelementptr inbounds %"class.cv::kinfu::TSDFVolumeCPU", ptr %8, i32 0, i32 4
  %51 = call noundef ptr @_ZNK2cv3Mat3ptrINS_5kinfu9TsdfVoxelEEEPKT_i(ptr noundef nonnull align 8 dereferenceable(96) %50, i32 noundef 0)
  store ptr %51, ptr %6, align 8
  %52 = load ptr, ptr %5, align 8
  %53 = call noundef nonnull align 4 dereferenceable(4) ptr @_ZNK2cv3VecIiLi3EEixEi(ptr noundef nonnull align 4 dereferenceable(12) %52, i32 noundef 0)
  %54 = load i32, ptr %53, align 4
  %55 = getelementptr inbounds %"class.cv::kinfu::TSDFVolume", ptr %8, i32 0, i32 5
  %56 = call noundef nonnull align 4 dereferenceable(4) ptr @_ZNK2cv3VecIiLi4EEixEi(ptr noundef nonnull align 4 dereferenceable(16) %55, i32 noundef 0)
  %57 = load i32, ptr %56, align 4
  %58 = mul nsw i32 %54, %57
  %59 = load ptr, ptr %5, align 8
  %60 = call noundef nonnull align 4 dereferenceable(4) ptr @_ZNK2cv3VecIiLi3EEixEi(ptr noundef nonnull align 4 dereferenceable(12) %59, i32 noundef 1)
  %61 = load i32, ptr %60, align 4
  %62 = getelementptr inbounds %"class.cv::kinfu::TSDFVolume", ptr %8, i32 0, i32 5
  %63 = call noundef nonnull align 4 dereferenceable(4) ptr @_ZNK2cv3VecIiLi4EEixEi(ptr noundef nonnull align 4 dereferenceable(16) %62, i32 noundef 1)
  %64 = load i32, ptr %63, align 4
  %65 = mul nsw i32 %61, %64
  %66 = add nsw i32 %58, %65
  %67 = load ptr, ptr %5, align 8
  %68 = call noundef nonnull align 4 dereferenceable(4) ptr @_ZNK2cv3VecIiLi3EEixEi(ptr noundef nonnull align 4 dereferenceable(12) %67, i32 noundef 2)
  %69 = load i32, ptr %68, align 4
  %70 = getelementptr inbounds %"class.cv::kinfu::TSDFVolume", ptr %8, i32 0, i32 5
  %71 = call noundef nonnull align 4 dereferenceable(4) ptr @_ZNK2cv3VecIiLi4EEixEi(ptr noundef nonnull align 4 dereferenceable(16) %70, i32 noundef 2)
  %72 = load i32, ptr %71, align 4
  %73 = mul nsw i32 %69, %72
  %74 = add nsw i32 %66, %73
  store i32 %74, ptr %7, align 4
  %75 = load ptr, ptr %6, align 8
  %76 = load i32, ptr %7, align 4
  %77 = sext i32 %76 to i64
  %78 = getelementptr inbounds %"struct.cv::kinfu::TsdfVoxel", ptr %75, i64 %77
  call void @llvm.memcpy.p0.p0.i64(ptr align 1 %3, ptr align 1 %78, i64 2, i1 false)
  br label %79

79:                                               ; preds = %49, %47
  %80 = load i16, ptr %3, align 1
  ret i16 %80
}