; Function Attrs: mustprogress nofree norecurse nosync nounwind willreturn memory(read, inaccessiblemem: none) uwtable
define hidden i16 @_ZNK2cv5kinfu13TSDFVolumeCPU2atERKNS_3VecIiLi3EEE(ptr nocapture noundef nonnull readonly align 8 dereferenceable(400) %0, ptr nocapture noundef nonnull readonly align 4 dereferenceable(12) %1) unnamed_addr #8 align 2 {
  %3 = load i32, ptr %1, align 4
  %4 = getelementptr inbounds i8, ptr %0, i64 84
  %5 = load i32, ptr %4, align 4
  %.not = icmp sge i32 %3, %5
  %6 = icmp slt i32 %3, 0
  %or.cond = or i1 %6, %.not
  br i1 %or.cond, label %37, label %7

7:                                                ; preds = %2
  %8 = getelementptr inbounds i8, ptr %1, i64 4
  %9 = load i32, ptr %8, align 4
  %10 = getelementptr inbounds i8, ptr %0, i64 88
  %11 = load i32, ptr %10, align 8
  %.not11 = icmp sge i32 %9, %11
  %12 = icmp slt i32 %9, 0
  %or.cond13 = or i1 %12, %.not11
  br i1 %or.cond13, label %37, label %13

13:                                               ; preds = %7
  %14 = getelementptr inbounds i8, ptr %1, i64 8
  %15 = load i32, ptr %14, align 4
  %16 = getelementptr inbounds i8, ptr %0, i64 92
  %17 = load i32, ptr %16, align 4
  %.not12 = icmp sge i32 %15, %17
  %18 = icmp slt i32 %15, 0
  %or.cond14 = or i1 %18, %.not12
  br i1 %or.cond14, label %37, label %19

19:                                               ; preds = %13
  %20 = getelementptr inbounds i8, ptr %0, i64 320
  %21 = load ptr, ptr %20, align 8
  %22 = getelementptr inbounds i8, ptr %0, i64 116
  %23 = load i32, ptr %22, align 4
  %24 = mul nsw i32 %23, %3
  %25 = getelementptr inbounds i8, ptr %0, i64 120
  %26 = load i32, ptr %25, align 8
  %27 = mul nsw i32 %26, %9
  %28 = add nsw i32 %27, %24
  %29 = getelementptr inbounds i8, ptr %0, i64 124
  %30 = load i32, ptr %29, align 4
  %31 = mul nsw i32 %30, %15
  %32 = add nsw i32 %28, %31
  %33 = sext i32 %32 to i64
  %34 = getelementptr inbounds %"struct.cv::kinfu::TsdfVoxel", ptr %21, i64 %33
  %35 = load i16, ptr %34, align 1
  %.sroa.3.0.extract.shift = and i16 %35, -256
  %36 = and i16 %35, 255
  br label %37

37:                                               ; preds = %2, %7, %13, %19
  %.sroa.3.0 = phi i16 [ %.sroa.3.0.extract.shift, %19 ], [ 0, %13 ], [ 0, %7 ], [ 0, %2 ]
  %.sroa.0.0 = phi i16 [ %36, %19 ], [ 128, %13 ], [ 128, %7 ], [ 128, %2 ]
  %.sroa.0.0.insert.insert = or disjoint i16 %.sroa.0.0, %.sroa.3.0
  ret i16 %.sroa.0.0.insert.insert
}